; Function Attrs: mustprogress uwtable
define dso_local void @_ZN3net11ProofSource5ChainC2ERKSt6vectorINSt7__cxx1112basic_stringIcSt11char_traitsIcESaIcEEESaIS8_EE(ptr noundef nonnull align 8 dereferenceable(40) %this, ptr noundef nonnull align 8 dereferenceable(24) %certs) unnamed_addr #0 align 2 personality ptr @__gxx_personality_v0 {
entry:
  %0 = getelementptr inbounds i8, ptr %this, i64 8
  store i32 0, ptr %0, align 8
  store ptr getelementptr inbounds ({ [4 x ptr] }, ptr @_ZTVN3net11ProofSource5ChainE, i64 0, i32 0, i64 2), ptr %this, align 8
  %certs2 = getelementptr inbounds i8, ptr %this, i64 16
  tail call void @_ZNSt6vectorINSt7__cxx1112basic_stringIcSt11char_traitsIcESaIcEEESaIS5_EEC2ERKS7_(ptr noundef nonnull align 8 dereferenceable(24) %certs2, ptr noundef nonnull align 8 dereferenceable(24) %certs)
  ret void
}